; Function Attrs: mustprogress uwtable
define hidden void @_ZN4cvc58internal11NodeManager10mkBoundVarERKNS0_8TypeNodeE(ptr noalias sret(%"class.cvc5::internal::NodeTemplate") align 8 %agg.result, ptr noundef nonnull align 8 dereferenceable(3360) %this, ptr noundef nonnull align 8 dereferenceable(8) %type) local_unnamed_addr #3 align 2 personality ptr @__gxx_personality_v0 {
entry:
  %ref.tmp.i3 = alloca %"class.cvc5::internal::expr::Attribute.290", align 1
  %ref.tmp.i = alloca %"class.cvc5::internal::expr::Attribute.289", align 1
  %ref.tmp = alloca %"class.cvc5::internal::NodeBuilder", align 8
  %ref.tmp10 = alloca i8, align 1
  call void @_ZN4cvc58internal11NodeBuilderC1EPNS0_11NodeManagerENS0_4kind6Kind_tE(ptr noundef nonnull align 8 dereferenceable(116) %ref.tmp, ptr noundef nonnull %this, i32 noundef 8)
  invoke void @_ZN4cvc58internal11NodeBuildercvNS0_12NodeTemplateILb1EEEEv(ptr sret(%"class.cvc5::internal::NodeTemplate") align 8 %agg.result, ptr noundef nonnull align 8 dereferenceable(116) %ref.tmp)
          to label %invoke.cont unwind label %lpad

invoke.cont:                                      ; preds = %entry
  call void @_ZN4cvc58internal11NodeBuilderD1Ev(ptr noundef nonnull align 8 dereferenceable(116) %ref.tmp) #7
  %0 = load ptr, ptr %agg.result, align 8
  call void @llvm.lifetime.start.p0(i64 1, ptr nonnull %ref.tmp.i)
  %d_attrManager.i = getelementptr inbounds i8, ptr %this, i64 80
  %1 = load ptr, ptr %d_attrManager.i, align 8
  invoke void @_ZN4cvc58internal4expr4attr16AttributeManager12setAttributeINS1_9AttributeINS2_7TypeTagENS0_8TypeNodeEEEEEvPNS1_9NodeValueERKT_RKNSB_10value_typeE(ptr noundef nonnull align 8 dereferenceable(344) %1, ptr noundef %0, ptr noundef nonnull align 1 dereferenceable(1) %ref.tmp.i, ptr noundef nonnull align 8 dereferenceable(8) %type)
          to label %invoke.cont6 unwind label %lpad5

invoke.cont6:                                     ; preds = %invoke.cont
  call void @llvm.lifetime.end.p0(i64 1, ptr nonnull %ref.tmp.i)
  %2 = load ptr, ptr %agg.result, align 8
  store i8 1, ptr %ref.tmp10, align 1
  call void @llvm.lifetime.start.p0(i64 1, ptr nonnull %ref.tmp.i3)
  %3 = load ptr, ptr %d_attrManager.i, align 8
  invoke void @_ZN4cvc58internal4expr4attr16AttributeManager12setAttributeINS1_9AttributeINS2_14TypeCheckedTagEbEEEEvPNS1_9NodeValueERKT_RKNSA_10value_typeE(ptr noundef nonnull align 8 dereferenceable(344) %3, ptr noundef %2, ptr noundef nonnull align 1 dereferenceable(1) %ref.tmp.i3, ptr noundef nonnull align 1 dereferenceable(1) %ref.tmp10)
          to label %invoke.cont12 unwind label %lpad11

invoke.cont12:                                    ; preds = %invoke.cont6
  call void @llvm.lifetime.end.p0(i64 1, ptr nonnull %ref.tmp.i3)
  ret void

lpad:                                             ; preds = %entry
  %4 = landingpad { ptr, i32 }
          cleanup
  call void @_ZN4cvc58internal11NodeBuilderD1Ev(ptr noundef nonnull align 8 dereferenceable(116) %ref.tmp) #7
  br label %eh.resume

lpad5:                                            ; preds = %invoke.cont
  %5 = landingpad { ptr, i32 }
          cleanup
  br label %ehcleanup

lpad11:                                           ; preds = %invoke.cont6
  %6 = landingpad { ptr, i32 }
          cleanup
  br label %ehcleanup

ehcleanup:                                        ; preds = %lpad11, %lpad5
  %.pn = phi { ptr, i32 } [ %6, %lpad11 ], [ %5, %lpad5 ]
  call void @_ZN4cvc58internal12NodeTemplateILb1EED2Ev(ptr noundef nonnull align 8 dereferenceable(8) %agg.result) #7
  br label %eh.resume

eh.resume:                                        ; preds = %ehcleanup, %lpad
  %.pn.pn = phi { ptr, i32 } [ %.pn, %ehcleanup ], [ %4, %lpad ]
  resume { ptr, i32 } %.pn.pn
}